; Function Attrs: nounwind uwtable
define void @lv_textarea_cursor_left(ptr noundef %0) local_unnamed_addr #0 {
  %.not = icmp eq ptr %0, null
  br i1 %.not, label %.preheader, label %lv_textarea_get_cursor_pos.exit

.preheader:                                       ; preds = %1, %.preheader
  br label %.preheader

lv_textarea_get_cursor_pos.exit:                  ; preds = %1
  %2 = getelementptr inbounds nuw i8, ptr %0, i64 116
  %3 = load i32, ptr %2, align 4, !tbaa !20
  %.not6 = icmp eq i32 %3, 0
  br i1 %.not6, label %6, label %4

4:                                                ; preds = %lv_textarea_get_cursor_pos.exit
  %5 = add i32 %3, -1
  tail call void @lv_textarea_set_cursor_pos(ptr noundef nonnull %0, i32 noundef %5)
  br label %6

6:                                                ; preds = %4, %lv_textarea_get_cursor_pos.exit
  ret void
}